target datalayout = "e-m:e-p270:32:32-p271:32:32-p272:64:64-i64:64-i128:128-f80:128-n8:16:32:64-S128"
target triple = "x86_64-pc-linux-gnu"

%struct.mi_option_desc_s = type { i64, i32, i32, ptr, ptr }

; Function Attrs: nounwind uwtable
define hidden i64 @_mi_option_get_fast(i32 noundef %0) #0 {
  %2 = alloca i32, align 4
  %3 = alloca ptr, align 8
  store i32 %0, ptr %2, align 4, !tbaa !3
  call void @llvm.lifetime.start.p0(i64 8, ptr %3) #12
  %4 = load i32, ptr %2, align 4, !tbaa !3
  %5 = zext i32 %4 to i64
  %6 = getelementptr inbounds nuw [36 x %struct.mi_option_desc_s], ptr @options, i64 0, i64 %5
  store ptr %6, ptr %3, align 8, !tbaa !9
  %7 = load ptr, ptr %3, align 8, !tbaa !9
  %8 = getelementptr inbounds nuw %struct.mi_option_desc_s, ptr %7, i32 0, i32 0
  %9 = load i64, ptr %8, align 8, !tbaa !15
  call void @llvm.lifetime.end.p0(i64 8, ptr %3) #12
  ret i64 %9
}

; Function Attrs: nounwind uwtable
define hidden void @mi_option_set(i32 noundef %0, i64 noundef %1) #0 {
  %3 = alloca i32, align 4
  %4 = alloca i64, align 8
  %5 = alloca ptr, align 8
  store i32 %0, ptr %3, align 4, !tbaa !3
  store i64 %1, ptr %4, align 8, !tbaa !7
  %6 = load i32, ptr %3, align 4, !tbaa !3
  %7 = icmp ult i32 %6, 0
  br i1 %7, label %11, label %8

8:                                                ; preds = %2
  %9 = load i32, ptr %3, align 4, !tbaa !3
  %10 = icmp uge i32 %9, 36
  br i1 %10, label %11, label %12

11:                                               ; preds = %8, %2
  br label %44

12:                                               ; preds = %8
  call void @llvm.lifetime.start.p0(i64 8, ptr %5) #12
  %13 = load i32, ptr %3, align 4, !tbaa !3
  %14 = zext i32 %13 to i64
  %15 = getelementptr inbounds nuw [36 x %struct.mi_option_desc_s], ptr @options, i64 0, i64 %14
  store ptr %15, ptr %5, align 8, !tbaa !9
  %16 = load i64, ptr %4, align 8, !tbaa !7
  %17 = load ptr, ptr %5, align 8, !tbaa !9
  %18 = getelementptr inbounds nuw %struct.mi_option_desc_s, ptr %17, i32 0, i32 0
  store i64 %16, ptr %18, align 8, !tbaa !15
  %19 = load ptr, ptr %5, align 8, !tbaa !9
  %20 = getelementptr inbounds nuw %struct.mi_option_desc_s, ptr %19, i32 0, i32 1
  store i32 2, ptr %20, align 8, !tbaa !19
  %21 = load ptr, ptr %5, align 8, !tbaa !9
  %22 = getelementptr inbounds nuw %struct.mi_option_desc_s, ptr %21, i32 0, i32 2
  %23 = load i32, ptr %22, align 4, !tbaa !28
  %24 = icmp eq i32 %23, 30
  br i1 %24, label %25, label %31

25:                                               ; preds = %12
  %26 = call i64 @_mi_option_get_fast(i32 noundef 31) #11
  %27 = load i64, ptr %4, align 8, !tbaa !7
  %28 = icmp slt i64 %26, %27
  br i1 %28, label %29, label %31

29:                                               ; preds = %25
  %30 = load i64, ptr %4, align 8, !tbaa !7
  call void @mi_option_set(i32 noundef 31, i64 noundef %30) #11
  br label %43

31:                                               ; preds = %25, %12
  %32 = load ptr, ptr %5, align 8, !tbaa !9
  %33 = getelementptr inbounds nuw %struct.mi_option_desc_s, ptr %32, i32 0, i32 2
  %34 = load i32, ptr %33, align 4, !tbaa !28
  %35 = icmp eq i32 %34, 31
  br i1 %35, label %36, label %42

36:                                               ; preds = %31
  %37 = call i64 @_mi_option_get_fast(i32 noundef 30) #11
  %38 = load i64, ptr %4, align 8, !tbaa !7
  %39 = icmp sgt i64 %37, %38
  br i1 %39, label %40, label %42

40:                                               ; preds = %36
  %41 = load i64, ptr %4, align 8, !tbaa !7
  call void @mi_option_set(i32 noundef 30, i64 noundef %41) #11
  br label %42

42:                                               ; preds = %40, %36, %31
  br label %43

43:                                               ; preds = %42, %29
  call void @llvm.lifetime.end.p0(i64 8, ptr %5) #12
  br label %44

44:                                               ; preds = %43, %11
  ret void
}

; Function Attrs: nounwind uwtable
define hidden void @mi_option_set_enabled(i32 noundef %0, i1 noundef zeroext %1) #0 {
  %3 = alloca i32, align 4
  %4 = alloca i8, align 1
  store i32 %0, ptr %3, align 4, !tbaa !3
  %5 = zext i1 %1 to i8
  store i8 %5, ptr %4, align 1, !tbaa !21
  %6 = load i32, ptr %3, align 4, !tbaa !3
  %7 = load i8, ptr %4, align 1, !tbaa !21, !range !23, !noundef !24
  %8 = trunc i8 %7 to i1
  %9 = select i1 %8, i32 1, i32 0
  %10 = sext i32 %9 to i64
  call void @mi_option_set(i32 noundef %6, i64 noundef %10) #11
  ret void
}

; Function Attrs: nounwind uwtable
define hidden void @mi_option_enable(i32 noundef %0) #0 {
  %2 = alloca i32, align 4
  store i32 %0, ptr %2, align 4, !tbaa !3
  %3 = load i32, ptr %2, align 4, !tbaa !3
  call void @mi_option_set_enabled(i32 noundef %3, i1 noundef zeroext true) #11
  ret void
}